target datalayout = "e-m:e-p270:32:32-p271:32:32-p272:64:64-i64:64-i128:128-f80:128-n8:16:32:64-S128"
target triple = "x86_64-pc-linux-gnu"

%struct.Abc_Ntk_t_ = type { i32, i32, ptr, ptr, ptr, ptr, ptr, ptr, ptr, ptr, ptr, ptr, ptr, [11 x i32], i32, i32, i32, i32, ptr, i32, ptr, ptr, i32, i32, i32, double, i32, %struct.Vec_Int_t_, ptr, ptr, ptr, ptr, ptr, float, i32, ptr, ptr, ptr, ptr, ptr, ptr, ptr, ptr, ptr, ptr, ptr, ptr, ptr, ptr, ptr, ptr, ptr, ptr, ptr, ptr, ptr, ptr }
%struct.Vec_Int_t_ = type { i32, i32, ptr }
%struct.Vec_Ptr_t_ = type { i32, i32, ptr }

@stdout = external global ptr, align 8
@.str.7 = private unnamed_addr constant [31 x i8] c"These nodes will be deleted: \0A\00", align 1
@.str.8 = private unnamed_addr constant [5 x i8] c"    \00", align 1

; Function Attrs: inlinehint nounwind uwtable
define internal ptr @Vec_PtrEntry(ptr noundef %0, i32 noundef %1) #2 {
  %3 = alloca ptr, align 8
  %4 = alloca i32, align 4
  store ptr %0, ptr %3, align 8, !tbaa !45
  store i32 %1, ptr %4, align 4, !tbaa !8
  %5 = load ptr, ptr %3, align 8, !tbaa !45
  %6 = getelementptr inbounds nuw %struct.Vec_Ptr_t_, ptr %5, i32 0, i32 2
  %7 = load ptr, ptr %6, align 8, !tbaa !73
  %8 = load i32, ptr %4, align 4, !tbaa !8
  %9 = sext i32 %8 to i64
  %10 = getelementptr inbounds ptr, ptr %7, i64 %9
  %11 = load ptr, ptr %10, align 8, !tbaa !78
  ret ptr %11
}

; Function Attrs: inlinehint nounwind uwtable
define internal ptr @Abc_NtkObj(ptr noundef %0, i32 noundef %1) #2 {
  %3 = alloca ptr, align 8
  %4 = alloca i32, align 4
  store ptr %0, ptr %3, align 8, !tbaa !3
  store i32 %1, ptr %4, align 4, !tbaa !8
  %5 = load ptr, ptr %3, align 8, !tbaa !3
  %6 = getelementptr inbounds nuw %struct.Abc_Ntk_t_, ptr %5, i32 0, i32 5
  %7 = load ptr, ptr %6, align 8, !tbaa !10
  %8 = load i32, ptr %4, align 4, !tbaa !8
  %9 = call ptr @Vec_PtrEntry(ptr noundef %7, i32 noundef %8)
  ret ptr %9
}

; Function Attrs: inlinehint nounwind uwtable
define internal i32 @Vec_PtrSize(ptr noundef %0) #2 {
  %2 = alloca ptr, align 8
  store ptr %0, ptr %2, align 8, !tbaa !45
  %3 = load ptr, ptr %2, align 8, !tbaa !45
  %4 = getelementptr inbounds nuw %struct.Vec_Ptr_t_, ptr %3, i32 0, i32 1
  %5 = load i32, ptr %4, align 4, !tbaa !46
  ret i32 %5
}

; Function Attrs: nounwind uwtable
define i32 @Abc_NodeRemoveNonCurrentObjects(ptr noundef %0) #0 {
  %2 = alloca ptr, align 8
  %3 = alloca ptr, align 8
  %4 = alloca i32, align 4
  %5 = alloca i32, align 4
  %6 = alloca i32, align 4
  store ptr %0, ptr %2, align 8, !tbaa !3
  call void @llvm.lifetime.start.p0(i64 8, ptr %3) #7
  call void @llvm.lifetime.start.p0(i64 4, ptr %4) #7
  call void @llvm.lifetime.start.p0(i64 4, ptr %5) #7
  call void @llvm.lifetime.start.p0(i64 4, ptr %6) #7
  store i32 0, ptr %6, align 4, !tbaa !8
  %7 = load i32, ptr %6, align 4, !tbaa !8
  %8 = icmp ne i32 %7, 0
  br i1 %8, label %9, label %42

9:                                                ; preds = %1
  %10 = call i32 (ptr, ...) @printf(ptr noundef @.str.7)
  store i32 0, ptr %5, align 4, !tbaa !8
  br label %11

11:                                               ; preds = %38, %9
  %12 = load i32, ptr %5, align 4, !tbaa !8
  %13 = load ptr, ptr %2, align 8, !tbaa !3
  %14 = getelementptr inbounds nuw %struct.Abc_Ntk_t_, ptr %13, i32 0, i32 5
  %15 = load ptr, ptr %14, align 8, !tbaa !10
  %16 = call i32 @Vec_PtrSize(ptr noundef %15)
  %17 = icmp slt i32 %12, %16
  br i1 %17, label %18, label %22

18:                                               ; preds = %11
  %19 = load ptr, ptr %2, align 8, !tbaa !3
  %20 = load i32, ptr %5, align 4, !tbaa !8
  %21 = call ptr @Abc_NtkObj(ptr noundef %19, i32 noundef %20)
  store ptr %21, ptr %3, align 8, !tbaa !26
  br label %22

22:                                               ; preds = %18, %11
  %23 = phi i1 [ false, %11 ], [ true, %18 ]
  br i1 %23, label %24, label %41

24:                                               ; preds = %22
  %25 = load ptr, ptr %3, align 8, !tbaa !26
  %26 = icmp eq ptr %25, null
  br i1 %26, label %27, label %28

27:                                               ; preds = %24
  br label %37

28:                                               ; preds = %24
  %29 = load ptr, ptr %3, align 8, !tbaa !26
  %30 = call i32 @Abc_NodeIsTravIdCurrent(ptr noundef %29)
  %31 = icmp ne i32 %30, 0
  br i1 %31, label %36, label %32

32:                                               ; preds = %28
  %33 = call i32 (ptr, ...) @printf(ptr noundef @.str.8)
  %34 = load ptr, ptr @stdout, align 8, !tbaa !65
  %35 = load ptr, ptr %3, align 8, !tbaa !26
  call void @Abc_ObjPrint(ptr noundef %34, ptr noundef %35)
  br label %36

36:                                               ; preds = %32, %28
  br label %37

37:                                               ; preds = %36, %27
  br label %38

38:                                               ; preds = %37
  %39 = load i32, ptr %5, align 4, !tbaa !8
  %40 = add nsw i32 %39, 1
  store i32 %40, ptr %5, align 4, !tbaa !8
  br label %11, !llvm.loop !92

41:                                               ; preds = %22
  br label %42

42:                                               ; preds = %41, %1
  store i32 0, ptr %4, align 4, !tbaa !8
  store i32 0, ptr %5, align 4, !tbaa !8
  br label %43

43:                                               ; preds = %70, %42
  %44 = load i32, ptr %5, align 4, !tbaa !8
  %45 = load ptr, ptr %2, align 8, !tbaa !3
  %46 = getelementptr inbounds nuw %struct.Abc_Ntk_t_, ptr %45, i32 0, i32 5
  %47 = load ptr, ptr %46, align 8, !tbaa !10
  %48 = call i32 @Vec_PtrSize(ptr noundef %47)
  %49 = icmp slt i32 %44, %48
  br i1 %49, label %50, label %54

50:                                               ; preds = %43
  %51 = load ptr, ptr %2, align 8, !tbaa !3
  %52 = load i32, ptr %5, align 4, !tbaa !8
  %53 = call ptr @Abc_NtkObj(ptr noundef %51, i32 noundef %52)
  store ptr %53, ptr %3, align 8, !tbaa !26
  br label %54

54:                                               ; preds = %50, %43
  %55 = phi i1 [ false, %43 ], [ true, %50 ]
  br i1 %55, label %56, label %73

56:                                               ; preds = %54
  %57 = load ptr, ptr %3, align 8, !tbaa !26
  %58 = icmp eq ptr %57, null
  br i1 %58, label %59, label %60

59:                                               ; preds = %56
  br label %69

60:                                               ; preds = %56
  %61 = load ptr, ptr %3, align 8, !tbaa !26
  %62 = call i32 @Abc_NodeIsTravIdCurrent(ptr noundef %61)
  %63 = icmp ne i32 %62, 0
  br i1 %63, label %68, label %64

64:                                               ; preds = %60
  %65 = load ptr, ptr %3, align 8, !tbaa !26
  call void @Abc_NtkDeleteObj(ptr noundef %65)
  %66 = load i32, ptr %4, align 4, !tbaa !8
  %67 = add nsw i32 %66, 1
  store i32 %67, ptr %4, align 4, !tbaa !8
  br label %68

68:                                               ; preds = %64, %60
  br label %69

69:                                               ; preds = %68, %59
  br label %70

70:                                               ; preds = %69
  %71 = load i32, ptr %5, align 4, !tbaa !8
  %72 = add nsw i32 %71, 1
  store i32 %72, ptr %5, align 4, !tbaa !8
  br label %43, !llvm.loop !93

73:                                               ; preds = %54
  %74 = load i32, ptr %4, align 4, !tbaa !8
  call void @llvm.lifetime.end.p0(i64 4, ptr %6) #7
  call void @llvm.lifetime.end.p0(i64 4, ptr %5) #7
  call void @llvm.lifetime.end.p0(i64 4, ptr %4) #7
  call void @llvm.lifetime.end.p0(i64 8, ptr %3) #7
  ret i32 %74
}