; Function Attrs: nounwind uwtable
define i32 @Abc_NodeRemoveNonCurrentObjects(ptr noundef readonly captures(none) %0) local_unnamed_addr #0 {
.critedge:
  %1 = getelementptr inbounds nuw i8, ptr %0, i64 32
  %2 = load ptr, ptr %1, align 8, !tbaa !25
  %3 = getelementptr i8, ptr %2, i64 4
  %.val25 = load i32, ptr %3, align 4, !tbaa !26
  %4 = icmp sgt i32 %.val25, 0
  br i1 %4, label %.lr.ph, label %.critedge2

.lr.ph:                                           ; preds = %.critedge, %14
  %indvars.iv = phi i64 [ %indvars.iv.next, %14 ], [ 0, %.critedge ]
  %5 = phi ptr [ %15, %14 ], [ %2, %.critedge ]
  %.02026 = phi i32 [ %.121, %14 ], [ 0, %.critedge ]
  %6 = getelementptr i8, ptr %5, i64 8
  %.val24.val = load ptr, ptr %6, align 8, !tbaa !28
  %7 = getelementptr inbounds nuw ptr, ptr %.val24.val, i64 %indvars.iv
  %8 = load ptr, ptr %7, align 8, !tbaa !29
  %9 = icmp eq ptr %8, null
  br i1 %9, label %14, label %10

10:                                               ; preds = %.lr.ph
  %11 = tail call fastcc i32 @Abc_NodeIsTravIdCurrent(ptr noundef nonnull %8)
  %.not = icmp eq i32 %11, 0
  br i1 %.not, label %12, label %14

12:                                               ; preds = %10
  tail call void @Abc_NtkDeleteObj(ptr noundef nonnull %8) #11
  %13 = add nsw i32 %.02026, 1
  br label %14

14:                                               ; preds = %.lr.ph, %12, %10
  %.121 = phi i32 [ %.02026, %.lr.ph ], [ %.02026, %10 ], [ %13, %12 ]
  %indvars.iv.next = add nuw nsw i64 %indvars.iv, 1
  %15 = load ptr, ptr %1, align 8, !tbaa !25
  %16 = getelementptr i8, ptr %15, i64 4
  %.val = load i32, ptr %16, align 4, !tbaa !26
  %17 = sext i32 %.val to i64
  %18 = icmp slt i64 %indvars.iv.next, %17
  br i1 %18, label %.lr.ph, label %.critedge2, !llvm.loop !88

.critedge2:                                       ; preds = %14, %.critedge
  %.020.lcssa = phi i32 [ 0, %.critedge ], [ %.121, %14 ]
  ret i32 %.020.lcssa
}